target datalayout = "e-m:e-p270:32:32-p271:32:32-p272:64:64-i64:64-i128:128-f80:128-n8:16:32:64-S128"
target triple = "x86_64-pc-linux-gnu"

@__const.cmsCreate_OkLabProfile.M_D65_D50 = private unnamed_addr constant [9 x double] [double 0x3FF0C4241C3EFAE8, double 2.291900e-02, double -5.021600e-02, double 2.958200e-02, double 9.904840e-01, double -1.707900e-02, double -9.252000e-03, double 1.507300e-02, double 7.516780e-01], align 16

; Function Attrs: nounwind uwtable
define hidden ptr @cmsCreate_OkLabProfile(ptr noundef %0) #0 {
  %2 = alloca ptr, align 8
  %3 = alloca ptr, align 8
  %4 = alloca ptr, align 8
  %5 = alloca ptr, align 8
  %6 = alloca [9 x double], align 16
  %7 = alloca [9 x double], align 16
  %8 = alloca ptr, align 8
  %9 = alloca ptr, align 8
  %10 = alloca [9 x double], align 16
  %11 = alloca [9 x double], align 16
  %12 = alloca ptr, align 8
  %13 = alloca ptr, align 8
  %14 = alloca ptr, align 8
  %15 = alloca ptr, align 8
  %16 = alloca [3 x ptr], align 16
  %17 = alloca [3 x ptr], align 16
  %18 = alloca ptr, align 8
  %19 = alloca ptr, align 8
  %20 = alloca [9 x double], align 16
  %21 = alloca [9 x double], align 16
  %22 = alloca ptr, align 8
  %23 = alloca ptr, align 8
  %24 = alloca ptr, align 8
  %25 = alloca ptr, align 8
  %26 = alloca ptr, align 8
  store ptr %0, ptr %3, align 8
  %27 = load ptr, ptr %3, align 8
  %28 = call ptr @_cmsStageNormalizeFromXyzFloat(ptr noundef %27)
  store ptr %28, ptr %4, align 8
  %29 = load ptr, ptr %3, align 8
  %30 = call ptr @_cmsStageNormalizeToXyzFloat(ptr noundef %29)
  store ptr %30, ptr %5, align 8
  call void @llvm.memcpy.p0.p0.i64(ptr align 16 %6, ptr align 16 @__const.cmsCreate_OkLabProfile.M_D65_D50, i64 72, i1 false)
  call void @llvm.memcpy.p0.p0.i64(ptr align 16 %7, ptr align 16 @__const.cmsCreate_OkLabProfile.M_D50_D65, i64 72, i1 false)
  %31 = load ptr, ptr %3, align 8
  %32 = getelementptr inbounds [9 x double], ptr %6, i64 0, i64 0
  %33 = call ptr @cmsStageAllocMatrix(ptr noundef %31, i32 noundef 3, i32 noundef 3, ptr noundef %32, ptr noundef null)
  store ptr %33, ptr %8, align 8
  %34 = load ptr, ptr %3, align 8
  %35 = getelementptr inbounds [9 x double], ptr %7, i64 0, i64 0
  %36 = call ptr @cmsStageAllocMatrix(ptr noundef %34, i32 noundef 3, i32 noundef 3, ptr noundef %35, ptr noundef null)
  store ptr %36, ptr %9, align 8
  call void @llvm.memcpy.p0.p0.i64(ptr align 16 %10, ptr align 16 @__const.cmsCreate_OkLabProfile.M_D65_LMS, i64 72, i1 false)
  call void @llvm.memcpy.p0.p0.i64(ptr align 16 %11, ptr align 16 @__const.cmsCreate_OkLabProfile.M_LMS_D65, i64 72, i1 false)
  %37 = load ptr, ptr %3, align 8
  %38 = getelementptr inbounds [9 x double], ptr %10, i64 0, i64 0
  %39 = call ptr @cmsStageAllocMatrix(ptr noundef %37, i32 noundef 3, i32 noundef 3, ptr noundef %38, ptr noundef null)
  store ptr %39, ptr %12, align 8
  %40 = load ptr, ptr %3, align 8
  %41 = getelementptr inbounds [9 x double], ptr %11, i64 0, i64 0
  %42 = call ptr @cmsStageAllocMatrix(ptr noundef %40, i32 noundef 3, i32 noundef 3, ptr noundef %41, ptr noundef null)
  store ptr %42, ptr %13, align 8
  %43 = load ptr, ptr %3, align 8
  %44 = call ptr @cmsBuildGamma(ptr noundef %43, double noundef 0x3FD5555555555555)
  store ptr %44, ptr %14, align 8
  %45 = load ptr, ptr %3, align 8
  %46 = call ptr @cmsBuildGamma(ptr noundef %45, double noundef 3.000000e+00)
  store ptr %46, ptr %15, align 8
  %47 = load ptr, ptr %14, align 8
  store ptr %47, ptr %16, align 8
  %48 = getelementptr inbounds ptr, ptr %16, i64 1
  %49 = load ptr, ptr %14, align 8
  store ptr %49, ptr %48, align 8
  %50 = getelementptr inbounds ptr, ptr %16, i64 2
  %51 = load ptr, ptr %14, align 8
  store ptr %51, ptr %50, align 8
  %52 = load ptr, ptr %15, align 8
  store ptr %52, ptr %17, align 8
  %53 = getelementptr inbounds ptr, ptr %17, i64 1
  %54 = load ptr, ptr %15, align 8
  store ptr %54, ptr %53, align 8
  %55 = getelementptr inbounds ptr, ptr %17, i64 2
  %56 = load ptr, ptr %15, align 8
  store ptr %56, ptr %55, align 8
  %57 = load ptr, ptr %3, align 8
  %58 = getelementptr inbounds [3 x ptr], ptr %16, i64 0, i64 0
  %59 = call ptr @cmsStageAllocToneCurves(ptr noundef %57, i32 noundef 3, ptr noundef %58)
  store ptr %59, ptr %18, align 8
  %60 = load ptr, ptr %3, align 8
  %61 = getelementptr inbounds [3 x ptr], ptr %17, i64 0, i64 0
  %62 = call ptr @cmsStageAllocToneCurves(ptr noundef %60, i32 noundef 3, ptr noundef %61)
  store ptr %62, ptr %19, align 8
  call void @llvm.memcpy.p0.p0.i64(ptr align 16 %20, ptr align 16 @__const.cmsCreate_OkLabProfile.M_LMSprime_OkLab, i64 72, i1 false)
  call void @llvm.memcpy.p0.p0.i64(ptr align 16 %21, ptr align 16 @__const.cmsCreate_OkLabProfile.M_OkLab_LMSprime, i64 72, i1 false)
  %63 = load ptr, ptr %3, align 8
  %64 = getelementptr inbounds [9 x double], ptr %20, i64 0, i64 0
  %65 = call ptr @cmsStageAllocMatrix(ptr noundef %63, i32 noundef 3, i32 noundef 3, ptr noundef %64, ptr noundef null)
  store ptr %65, ptr %22, align 8
  %66 = load ptr, ptr %3, align 8
  %67 = getelementptr inbounds [9 x double], ptr %21, i64 0, i64 0
  %68 = call ptr @cmsStageAllocMatrix(ptr noundef %66, i32 noundef 3, i32 noundef 3, ptr noundef %67, ptr noundef null)
  store ptr %68, ptr %23, align 8
  %69 = load ptr, ptr %3, align 8
  %70 = call ptr @cmsPipelineAlloc(ptr noundef %69, i32 noundef 3, i32 noundef 3)
  store ptr %70, ptr %24, align 8
  %71 = load ptr, ptr %3, align 8
  %72 = call ptr @cmsPipelineAlloc(ptr noundef %71, i32 noundef 3, i32 noundef 3)
  store ptr %72, ptr %25, align 8
  %73 = load ptr, ptr %3, align 8
  %74 = call ptr @cmsCreateProfilePlaceholder(ptr noundef %73)
  store ptr %74, ptr %26, align 8
  %75 = load ptr, ptr %26, align 8
  call void @cmsSetProfileVersion(ptr noundef %75, double noundef 4.400000e+00)
  %76 = load ptr, ptr %26, align 8
  call void @cmsSetDeviceClass(ptr noundef %76, i32 noundef 1936744803)
  %77 = load ptr, ptr %26, align 8
  call void @cmsSetColorSpace(ptr noundef %77, i32 noundef 860048466)
  %78 = load ptr, ptr %26, align 8
  call void @cmsSetPCS(ptr noundef %78, i32 noundef 1482250784)
  %79 = load ptr, ptr %26, align 8
  call void @cmsSetHeaderRenderingIntent(ptr noundef %79, i32 noundef 1)
  %80 = load ptr, ptr %25, align 8
  %81 = load ptr, ptr %5, align 8
  %82 = call i32 @cmsPipelineInsertStage(ptr noundef %80, i32 noundef 1, ptr noundef %81)
  %83 = icmp ne i32 %82, 0
  br i1 %83, label %85, label %84

84:                                               ; preds = %1
  br label %157

85:                                               ; preds = %1
  %86 = load ptr, ptr %25, align 8
  %87 = load ptr, ptr %9, align 8
  %88 = call i32 @cmsPipelineInsertStage(ptr noundef %86, i32 noundef 1, ptr noundef %87)
  %89 = icmp ne i32 %88, 0
  br i1 %89, label %91, label %90

90:                                               ; preds = %85
  br label %157

91:                                               ; preds = %85
  %92 = load ptr, ptr %25, align 8
  %93 = load ptr, ptr %12, align 8
  %94 = call i32 @cmsPipelineInsertStage(ptr noundef %92, i32 noundef 1, ptr noundef %93)
  %95 = icmp ne i32 %94, 0
  br i1 %95, label %97, label %96

96:                                               ; preds = %91
  br label %157

97:                                               ; preds = %91
  %98 = load ptr, ptr %25, align 8
  %99 = load ptr, ptr %18, align 8
  %100 = call i32 @cmsPipelineInsertStage(ptr noundef %98, i32 noundef 1, ptr noundef %99)
  %101 = icmp ne i32 %100, 0
  br i1 %101, label %103, label %102

102:                                              ; preds = %97
  br label %157

103:                                              ; preds = %97
  %104 = load ptr, ptr %25, align 8
  %105 = load ptr, ptr %22, align 8
  %106 = call i32 @cmsPipelineInsertStage(ptr noundef %104, i32 noundef 1, ptr noundef %105)
  %107 = icmp ne i32 %106, 0
  br i1 %107, label %109, label %108

108:                                              ; preds = %103
  br label %157

109:                                              ; preds = %103
  %110 = load ptr, ptr %26, align 8
  %111 = load ptr, ptr %25, align 8
  %112 = call i32 @cmsWriteTag(ptr noundef %110, i32 noundef 1110589744, ptr noundef %111)
  %113 = icmp ne i32 %112, 0
  br i1 %113, label %115, label %114

114:                                              ; preds = %109
  br label %157

115:                                              ; preds = %109
  %116 = load ptr, ptr %24, align 8
  %117 = load ptr, ptr %23, align 8
  %118 = call i32 @cmsPipelineInsertStage(ptr noundef %116, i32 noundef 1, ptr noundef %117)
  %119 = icmp ne i32 %118, 0
  br i1 %119, label %121, label %120

120:                                              ; preds = %115
  br label %157

121:                                              ; preds = %115
  %122 = load ptr, ptr %24, align 8
  %123 = load ptr, ptr %19, align 8
  %124 = call i32 @cmsPipelineInsertStage(ptr noundef %122, i32 noundef 1, ptr noundef %123)
  %125 = icmp ne i32 %124, 0
  br i1 %125, label %127, label %126

126:                                              ; preds = %121
  br label %157

127:                                              ; preds = %121
  %128 = load ptr, ptr %24, align 8
  %129 = load ptr, ptr %13, align 8
  %130 = call i32 @cmsPipelineInsertStage(ptr noundef %128, i32 noundef 1, ptr noundef %129)
  %131 = icmp ne i32 %130, 0
  br i1 %131, label %133, label %132

132:                                              ; preds = %127
  br label %157

133:                                              ; preds = %127
  %134 = load ptr, ptr %24, align 8
  %135 = load ptr, ptr %8, align 8
  %136 = call i32 @cmsPipelineInsertStage(ptr noundef %134, i32 noundef 1, ptr noundef %135)
  %137 = icmp ne i32 %136, 0
  br i1 %137, label %139, label %138

138:                                              ; preds = %133
  br label %157

139:                                              ; preds = %133
  %140 = load ptr, ptr %24, align 8
  %141 = load ptr, ptr %4, align 8
  %142 = call i32 @cmsPipelineInsertStage(ptr noundef %140, i32 noundef 1, ptr noundef %141)
  %143 = icmp ne i32 %142, 0
  br i1 %143, label %145, label %144

144:                                              ; preds = %139
  br label %157

145:                                              ; preds = %139
  %146 = load ptr, ptr %26, align 8
  %147 = load ptr, ptr %24, align 8
  %148 = call i32 @cmsWriteTag(ptr noundef %146, i32 noundef 1093812784, ptr noundef %147)
  %149 = icmp ne i32 %148, 0
  br i1 %149, label %151, label %150

150:                                              ; preds = %145
  br label %157

151:                                              ; preds = %145
  %152 = load ptr, ptr %25, align 8
  call void @cmsPipelineFree(ptr noundef %152)
  %153 = load ptr, ptr %24, align 8
  call void @cmsPipelineFree(ptr noundef %153)
  %154 = load ptr, ptr %14, align 8
  call void @cmsFreeToneCurve(ptr noundef %154)
  %155 = load ptr, ptr %15, align 8
  call void @cmsFreeToneCurve(ptr noundef %155)
  %156 = load ptr, ptr %26, align 8
  store ptr %156, ptr %2, align 8
  br label %164

157:                                              ; preds = %150, %144, %138, %132, %126, %120, %114, %108, %102, %96, %90, %84
  %158 = load ptr, ptr %25, align 8
  call void @cmsPipelineFree(ptr noundef %158)
  %159 = load ptr, ptr %24, align 8
  call void @cmsPipelineFree(ptr noundef %159)
  %160 = load ptr, ptr %14, align 8
  call void @cmsFreeToneCurve(ptr noundef %160)
  %161 = load ptr, ptr %15, align 8
  call void @cmsFreeToneCurve(ptr noundef %161)
  %162 = load ptr, ptr %26, align 8
  %163 = call i32 @cmsCloseProfile(ptr noundef %162)
  store ptr null, ptr %2, align 8
  br label %164

164:                                              ; preds = %157, %151
  %165 = load ptr, ptr %2, align 8
  ret ptr %165
}