; Function Attrs: nounwind uwtable
define hidden noundef ptr @cmsCreate_OkLabProfile(ptr noundef %0) local_unnamed_addr #0 {
  %2 = alloca [9 x double], align 16
  %3 = alloca [9 x double], align 16
  %4 = alloca [9 x double], align 16
  %5 = alloca [9 x double], align 16
  %6 = alloca [3 x ptr], align 16
  %7 = alloca [3 x ptr], align 16
  %8 = alloca [9 x double], align 16
  %9 = alloca [9 x double], align 16
  %10 = tail call ptr @_cmsStageNormalizeFromXyzFloat(ptr noundef %0) #7
  %11 = tail call ptr @_cmsStageNormalizeToXyzFloat(ptr noundef %0) #7
  call void @llvm.memcpy.p0.p0.i64(ptr noundef nonnull align 16 dereferenceable(72) %2, ptr noundef nonnull align 16 dereferenceable(72) @__const.cmsCreate_OkLabProfile.M_D65_D50, i64 72, i1 false)
  call void @llvm.memcpy.p0.p0.i64(ptr noundef nonnull align 16 dereferenceable(72) %3, ptr noundef nonnull align 16 dereferenceable(72) @__const.cmsCreate_OkLabProfile.M_D50_D65, i64 72, i1 false)
  %12 = call ptr @cmsStageAllocMatrix(ptr noundef %0, i32 noundef 3, i32 noundef 3, ptr noundef nonnull %2, ptr noundef null) #7
  %13 = call ptr @cmsStageAllocMatrix(ptr noundef %0, i32 noundef 3, i32 noundef 3, ptr noundef nonnull %3, ptr noundef null) #7
  call void @llvm.memcpy.p0.p0.i64(ptr noundef nonnull align 16 dereferenceable(72) %4, ptr noundef nonnull align 16 dereferenceable(72) @__const.cmsCreate_OkLabProfile.M_D65_LMS, i64 72, i1 false)
  call void @llvm.memcpy.p0.p0.i64(ptr noundef nonnull align 16 dereferenceable(72) %5, ptr noundef nonnull align 16 dereferenceable(72) @__const.cmsCreate_OkLabProfile.M_LMS_D65, i64 72, i1 false)
  %14 = call ptr @cmsStageAllocMatrix(ptr noundef %0, i32 noundef 3, i32 noundef 3, ptr noundef nonnull %4, ptr noundef null) #7
  %15 = call ptr @cmsStageAllocMatrix(ptr noundef %0, i32 noundef 3, i32 noundef 3, ptr noundef nonnull %5, ptr noundef null) #7
  %16 = call ptr @cmsBuildGamma(ptr noundef %0, double noundef 0x3FD5555555555555) #7
  %17 = call ptr @cmsBuildGamma(ptr noundef %0, double noundef 3.000000e+00) #7
  store ptr %16, ptr %6, align 16
  %18 = getelementptr inbounds i8, ptr %6, i64 8
  store ptr %16, ptr %18, align 8
  %19 = getelementptr inbounds i8, ptr %6, i64 16
  store ptr %16, ptr %19, align 16
  store ptr %17, ptr %7, align 16
  %20 = getelementptr inbounds i8, ptr %7, i64 8
  store ptr %17, ptr %20, align 8
  %21 = getelementptr inbounds i8, ptr %7, i64 16
  store ptr %17, ptr %21, align 16
  %22 = call ptr @cmsStageAllocToneCurves(ptr noundef %0, i32 noundef 3, ptr noundef nonnull %6) #7
  %23 = call ptr @cmsStageAllocToneCurves(ptr noundef %0, i32 noundef 3, ptr noundef nonnull %7) #7
  call void @llvm.memcpy.p0.p0.i64(ptr noundef nonnull align 16 dereferenceable(72) %8, ptr noundef nonnull align 16 dereferenceable(72) @__const.cmsCreate_OkLabProfile.M_LMSprime_OkLab, i64 72, i1 false)
  call void @llvm.memcpy.p0.p0.i64(ptr noundef nonnull align 16 dereferenceable(72) %9, ptr noundef nonnull align 16 dereferenceable(72) @__const.cmsCreate_OkLabProfile.M_OkLab_LMSprime, i64 72, i1 false)
  %24 = call ptr @cmsStageAllocMatrix(ptr noundef %0, i32 noundef 3, i32 noundef 3, ptr noundef nonnull %8, ptr noundef null) #7
  %25 = call ptr @cmsStageAllocMatrix(ptr noundef %0, i32 noundef 3, i32 noundef 3, ptr noundef nonnull %9, ptr noundef null) #7
  %26 = call ptr @cmsPipelineAlloc(ptr noundef %0, i32 noundef 3, i32 noundef 3) #7
  %27 = call ptr @cmsPipelineAlloc(ptr noundef %0, i32 noundef 3, i32 noundef 3) #7
  %28 = call ptr @cmsCreateProfilePlaceholder(ptr noundef %0) #7
  call void @cmsSetProfileVersion(ptr noundef %28, double noundef 4.400000e+00) #7
  call void @cmsSetDeviceClass(ptr noundef %28, i32 noundef 1936744803) #7
  call void @cmsSetColorSpace(ptr noundef %28, i32 noundef 860048466) #7
  call void @cmsSetPCS(ptr noundef %28, i32 noundef 1482250784) #7
  call void @cmsSetHeaderRenderingIntent(ptr noundef %28, i32 noundef 1) #7
  %29 = call i32 @cmsPipelineInsertStage(ptr noundef %27, i32 noundef 1, ptr noundef %11) #7
  %.not = icmp eq i32 %29, 0
  br i1 %.not, label %53, label %30

30:                                               ; preds = %1
  %31 = call i32 @cmsPipelineInsertStage(ptr noundef %27, i32 noundef 1, ptr noundef %13) #7
  %.not61 = icmp eq i32 %31, 0
  br i1 %.not61, label %53, label %32

32:                                               ; preds = %30
  %33 = call i32 @cmsPipelineInsertStage(ptr noundef %27, i32 noundef 1, ptr noundef %14) #7
  %.not62 = icmp eq i32 %33, 0
  br i1 %.not62, label %53, label %34

34:                                               ; preds = %32
  %35 = call i32 @cmsPipelineInsertStage(ptr noundef %27, i32 noundef 1, ptr noundef %22) #7
  %.not63 = icmp eq i32 %35, 0
  br i1 %.not63, label %53, label %36

36:                                               ; preds = %34
  %37 = call i32 @cmsPipelineInsertStage(ptr noundef %27, i32 noundef 1, ptr noundef %24) #7
  %.not64 = icmp eq i32 %37, 0
  br i1 %.not64, label %53, label %38

38:                                               ; preds = %36
  %39 = call i32 @cmsWriteTag(ptr noundef %28, i32 noundef 1110589744, ptr noundef %27) #7
  %.not65 = icmp eq i32 %39, 0
  br i1 %.not65, label %53, label %40

40:                                               ; preds = %38
  %41 = call i32 @cmsPipelineInsertStage(ptr noundef %26, i32 noundef 1, ptr noundef %25) #7
  %.not66 = icmp eq i32 %41, 0
  br i1 %.not66, label %53, label %42

42:                                               ; preds = %40
  %43 = call i32 @cmsPipelineInsertStage(ptr noundef %26, i32 noundef 1, ptr noundef %23) #7
  %.not67 = icmp eq i32 %43, 0
  br i1 %.not67, label %53, label %44

44:                                               ; preds = %42
  %45 = call i32 @cmsPipelineInsertStage(ptr noundef %26, i32 noundef 1, ptr noundef %15) #7
  %.not68 = icmp eq i32 %45, 0
  br i1 %.not68, label %53, label %46

46:                                               ; preds = %44
  %47 = call i32 @cmsPipelineInsertStage(ptr noundef %26, i32 noundef 1, ptr noundef %12) #7
  %.not69 = icmp eq i32 %47, 0
  br i1 %.not69, label %53, label %48

48:                                               ; preds = %46
  %49 = call i32 @cmsPipelineInsertStage(ptr noundef %26, i32 noundef 1, ptr noundef %10) #7
  %.not70 = icmp eq i32 %49, 0
  br i1 %.not70, label %53, label %50

50:                                               ; preds = %48
  %51 = call i32 @cmsWriteTag(ptr noundef %28, i32 noundef 1093812784, ptr noundef %26) #7
  %.not71 = icmp eq i32 %51, 0
  br i1 %.not71, label %53, label %52

52:                                               ; preds = %50
  call void @cmsPipelineFree(ptr noundef %27) #7
  call void @cmsPipelineFree(ptr noundef %26) #7
  call void @cmsFreeToneCurve(ptr noundef %16) #7
  call void @cmsFreeToneCurve(ptr noundef %17) #7
  br label %55

53:                                               ; preds = %50, %48, %46, %44, %42, %40, %38, %36, %34, %32, %30, %1
  call void @cmsPipelineFree(ptr noundef %27) #7
  call void @cmsPipelineFree(ptr noundef %26) #7
  call void @cmsFreeToneCurve(ptr noundef %16) #7
  call void @cmsFreeToneCurve(ptr noundef %17) #7
  %54 = call i32 @cmsCloseProfile(ptr noundef %28) #7
  br label %55

55:                                               ; preds = %53, %52
  %.0 = phi ptr [ %28, %52 ], [ null, %53 ]
  ret ptr %.0
}